; ModuleID = '56/2091.c'
source_filename = "56/2091.c"
target datalayout = "e-m:e-p270:32:32-p271:32:32-p272:64:64-i64:64-f80:128-n8:16:32:64-S128"
target triple = "x86_64-pc-linux-gnu"

@.str = private unnamed_addr constant [3 x i8] c"%d\00", align 1

; Function Attrs: noinline nounwind uwtable
define dso_local i32 @main() #0 {
  %1 = alloca i32, align 4
  %2 = alloca i32, align 4
  %3 = alloca i32, align 4
  %4 = alloca i32, align 4
  %5 = alloca [6 x i32], align 16
  store i32 0, i32* %1, align 4
  store i32 1, i32* %3, align 4
  %6 = call i32 (i8*, ...) @__isoc99_scanf(i8* getelementptr inbounds ([3 x i8], [3 x i8]* @.str, i64 0, i64 0), i32* %2)
  br label %7

7:                                                ; preds = %10, %0
  %8 = load i32, i32* %2, align 4
  %9 = icmp ne i32 %8, 0
  br i1 %9, label %10, label %25

10:                                               ; preds = %7
  %11 = load i32, i32* %2, align 4
  %12 = srem i32 %11, 10
  %13 = load i32, i32* %3, align 4
  %14 = sext i32 %13 to i64
  %15 = getelementptr inbounds [6 x i32], [6 x i32]* %5, i64 0, i64 %14
  store i32 %12, i32* %15, align 4
  %16 = load i32, i32* %2, align 4
  %17 = load i32, i32* %3, align 4
  %18 = sext i32 %17 to i64
  %19 = getelementptr inbounds [6 x i32], [6 x i32]* %5, i64 0, i64 %18
  %20 = load i32, i32* %19, align 4
  %21 = sub nsw i32 %16, %20
  %22 = sdiv i32 %21, 10
  store i32 %22, i32* %2, align 4
  %23 = load i32, i32* %3, align 4
  %24 = add nsw i32 %23, 1
  store i32 %24, i32* %3, align 4
  br label %7

25:                                               ; preds = %7
  store i32 1, i32* %4, align 4
  br label %26

26:                                               ; preds = %37, %25
  %27 = load i32, i32* %4, align 4
  %28 = load i32, i32* %3, align 4
  %29 = sub nsw i32 %28, 1
  %30 = icmp sle i32 %27, %29
  br i1 %30, label %31, label %40

31:                                               ; preds = %26
  %32 = load i32, i32* %4, align 4
  %33 = sext i32 %32 to i64
  %34 = getelementptr inbounds [6 x i32], [6 x i32]* %5, i64 0, i64 %33
  %35 = load i32, i32* %34, align 4
  %36 = call i32 (i8*, ...) @printf(i8* getelementptr inbounds ([3 x i8], [3 x i8]* @.str, i64 0, i64 0), i32 %35)
  br label %37

37:                                               ; preds = %31
  %38 = load i32, i32* %4, align 4
  %39 = add nsw i32 %38, 1
  store i32 %39, i32* %4, align 4
  br label %26

40:                                               ; preds = %26
  ret i32 0
}

declare dso_local i32 @__isoc99_scanf(i8*, ...) #1

declare dso_local i32 @printf(i8*, ...) #1


!llvm.module.flags = !{!0}
!llvm.ident = !{!1}

!0 = !{i32 1, !"wchar_size", i32 4}
!1 = !{!"clang version 10.0.0-4ubuntu1 "}
