; ModuleID = 'source-C-CXX/55/2091.c'
source_filename = "source-C-CXX/55/2091.c"
target datalayout = "e-m:e-p270:32:32-p271:32:32-p272:64:64-i64:64-f80:128-n8:16:32:64-S128"
target triple = "x86_64-pc-linux-gnu"

@.str = private unnamed_addr constant [3 x i8] c"%d\00", align 1

; Function Attrs: nofree nounwind sspstrong uwtable
define dso_local i32 @main() local_unnamed_addr #0 {
  %1 = alloca i32, align 4
  %2 = alloca [6 x i32], align 16
  %3 = bitcast i32* %1 to i8*
  call void @llvm.lifetime.start.p0i8(i64 4, i8* nonnull %3) #3
  %4 = bitcast [6 x i32]* %2 to i8*
  call void @llvm.lifetime.start.p0i8(i64 24, i8* nonnull %4) #3
  %5 = call i32 (i8*, ...) @__isoc99_scanf(i8* getelementptr inbounds ([3 x i8], [3 x i8]* @.str, i64 0, i64 0), i32* nonnull %1)
  %6 = load i32, i32* %1, align 4, !tbaa !5
  %7 = icmp eq i32 %6, 0
  br i1 %7, label %29, label %13

8:                                                ; preds = %13
  %9 = trunc i64 %19 to i32
  store i32 %18, i32* %1, align 4, !tbaa !5
  %10 = icmp ugt i32 %9, 1
  br i1 %10, label %11, label %29

11:                                               ; preds = %8
  %12 = and i64 %19, 4294967295
  br label %22

13:                                               ; preds = %0, %13
  %14 = phi i64 [ %19, %13 ], [ 1, %0 ]
  %15 = phi i32 [ %18, %13 ], [ %6, %0 ]
  %16 = srem i32 %15, 10
  %17 = getelementptr inbounds [6 x i32], [6 x i32]* %2, i64 0, i64 %14
  store i32 %16, i32* %17, align 4, !tbaa !5
  %18 = sdiv i32 %15, 10
  %19 = add nuw i64 %14, 1
  %20 = add i32 %15, 9
  %21 = icmp ult i32 %20, 19
  br i1 %21, label %8, label %13, !llvm.loop !9

22:                                               ; preds = %11, %22
  %23 = phi i64 [ 1, %11 ], [ %27, %22 ]
  %24 = getelementptr inbounds [6 x i32], [6 x i32]* %2, i64 0, i64 %23
  %25 = load i32, i32* %24, align 4, !tbaa !5
  %26 = call i32 (i8*, ...) @printf(i8* nonnull dereferenceable(1) getelementptr inbounds ([3 x i8], [3 x i8]* @.str, i64 0, i64 0), i32 %25)
  %27 = add nuw nsw i64 %23, 1
  %28 = icmp eq i64 %27, %12
  br i1 %28, label %29, label %22, !llvm.loop !11

29:                                               ; preds = %22, %0, %8
  call void @llvm.lifetime.end.p0i8(i64 24, i8* nonnull %4) #3
  call void @llvm.lifetime.end.p0i8(i64 4, i8* nonnull %3) #3
  ret i32 0
}

; Function Attrs: argmemonly mustprogress nofree nosync nounwind willreturn
declare void @llvm.lifetime.start.p0i8(i64 immarg, i8* nocapture) #1

; Function Attrs: nofree nounwind
declare noundef i32 @__isoc99_scanf(i8* nocapture noundef readonly, ...) local_unnamed_addr #2

; Function Attrs: nofree nounwind
declare noundef i32 @printf(i8* nocapture noundef readonly, ...) local_unnamed_addr #2

; Function Attrs: argmemonly mustprogress nofree nosync nounwind willreturn
declare void @llvm.lifetime.end.p0i8(i64 immarg, i8* nocapture) #1


!llvm.module.flags = !{!0, !1, !2, !3}
!llvm.ident = !{!4}

!0 = !{i32 1, !"wchar_size", i32 4}
!1 = !{i32 7, !"PIC Level", i32 2}
!2 = !{i32 7, !"PIE Level", i32 2}
!3 = !{i32 7, !"uwtable", i32 1}
!4 = !{!"clang version 13.0.0"}
!5 = !{!6, !6, i64 0}
!6 = !{!"int", !7, i64 0}
!7 = !{!"omnipotent char", !8, i64 0}
!8 = !{!"Simple C/C++ TBAA"}
!9 = distinct !{!9, !10}
!10 = !{!"llvm.loop.mustprogress"}
!11 = distinct !{!11, !10}
